; ModuleID = '27/1290.c'
source_filename = "27/1290.c"
target datalayout = "e-m:e-p270:32:32-p271:32:32-p272:64:64-i64:64-f80:128-n8:16:32:64-S128"
target triple = "x86_64-pc-linux-gnu"

@.str = private unnamed_addr constant [4 x i8] c"%lf\00", align 1
@.str.1 = private unnamed_addr constant [10 x i8] c"%lf%lf%lf\00", align 1
@.str.2 = private unnamed_addr constant [19 x i8] c"x1=%.5lf;x2=%.5lf\0A\00", align 1
@.str.3 = private unnamed_addr constant [13 x i8] c"x1=x2=%.5lf\0A\00", align 1
@.str.4 = private unnamed_addr constant [33 x i8] c"x1=%.5lf+%.5lfi;x2=%.5lf-%.5lfi\0A\00", align 1

; Function Attrs: noinline nounwind uwtable
define dso_local i32 @main(i32 %0, i8** %1) #0 {
  %3 = alloca i32, align 4
  %4 = alloca i32, align 4
  %5 = alloca i8**, align 8
  %6 = alloca double, align 8
  %7 = alloca double, align 8
  %8 = alloca double, align 8
  %9 = alloca double, align 8
  %10 = alloca double, align 8
  %11 = alloca double, align 8
  %12 = alloca double, align 8
  %13 = alloca double, align 8
  %14 = alloca double, align 8
  %15 = alloca double, align 8
  store i32 0, i32* %3, align 4
  store i32 %0, i32* %4, align 4
  store i8** %1, i8*** %5, align 8
  %16 = call i32 (i8*, ...) @__isoc99_scanf(i8* getelementptr inbounds ([4 x i8], [4 x i8]* @.str, i64 0, i64 0), double* %14)
  store double 1.000000e+00, double* %15, align 8
  br label %17

17:                                               ; preds = %122, %2
  %18 = load double, double* %15, align 8
  %19 = load double, double* %14, align 8
  %20 = fcmp ole double %18, %19
  br i1 %20, label %21, label %125

21:                                               ; preds = %17
  %22 = call i32 (i8*, ...) @__isoc99_scanf(i8* getelementptr inbounds ([10 x i8], [10 x i8]* @.str.1, i64 0, i64 0), double* %6, double* %7, double* %8)
  %23 = load double, double* %7, align 8
  %24 = load double, double* %7, align 8
  %25 = fmul double %23, %24
  %26 = load double, double* %6, align 8
  %27 = fmul double 4.000000e+00, %26
  %28 = load double, double* %8, align 8
  %29 = fmul double %27, %28
  %30 = fsub double %25, %29
  store double %30, double* %9, align 8
  %31 = load double, double* %9, align 8
  %32 = fcmp ogt double %31, 0.000000e+00
  br i1 %32, label %33, label %53

33:                                               ; preds = %21
  %34 = load double, double* %7, align 8
  %35 = fneg double %34
  %36 = load double, double* %6, align 8
  %37 = fmul double 2.000000e+00, %36
  %38 = fdiv double %35, %37
  store double %38, double* %12, align 8
  %39 = load double, double* %9, align 8
  %40 = call double @sqrt(double %39) #3
  %41 = load double, double* %6, align 8
  %42 = fmul double 2.000000e+00, %41
  %43 = fdiv double %40, %42
  store double %43, double* %13, align 8
  %44 = load double, double* %12, align 8
  %45 = load double, double* %13, align 8
  %46 = fadd double %44, %45
  store double %46, double* %10, align 8
  %47 = load double, double* %12, align 8
  %48 = load double, double* %13, align 8
  %49 = fsub double %47, %48
  store double %49, double* %11, align 8
  %50 = load double, double* %10, align 8
  %51 = load double, double* %11, align 8
  %52 = call i32 (i8*, ...) @printf(i8* getelementptr inbounds ([19 x i8], [19 x i8]* @.str.2, i64 0, i64 0), double %50, double %51)
  br label %121

53:                                               ; preds = %21
  %54 = load double, double* %9, align 8
  %55 = fcmp oeq double %54, 0.000000e+00
  br i1 %55, label %56, label %65

56:                                               ; preds = %53
  %57 = load double, double* %7, align 8
  %58 = fneg double %57
  %59 = load double, double* %6, align 8
  %60 = fmul double 2.000000e+00, %59
  %61 = fdiv double %58, %60
  store double %61, double* %12, align 8
  %62 = load double, double* %12, align 8
  store double %62, double* %10, align 8
  %63 = load double, double* %10, align 8
  %64 = call i32 (i8*, ...) @printf(i8* getelementptr inbounds ([13 x i8], [13 x i8]* @.str.3, i64 0, i64 0), double %63)
  br label %120

65:                                               ; preds = %53
  %66 = load double, double* %9, align 8
  %67 = fcmp olt double %66, 0.000000e+00
  %68 = zext i1 %67 to i32
  %69 = load double, double* %7, align 8
  %70 = load double, double* %6, align 8
  %71 = fmul double 2.000000e+00, %70
  %72 = fdiv double %69, %71
  %73 = fcmp oeq double %72, 0.000000e+00
  br i1 %73, label %74, label %96

74:                                               ; preds = %65
  %75 = load double, double* %7, align 8
  %76 = load double, double* %6, align 8
  %77 = fmul double 2.000000e+00, %76
  %78 = fdiv double %75, %77
  store double %78, double* %12, align 8
  %79 = load double, double* %9, align 8
  %80 = fneg double %79
  %81 = call double @sqrt(double %80) #3
  %82 = load double, double* %6, align 8
  %83 = fmul double 2.000000e+00, %82
  %84 = fdiv double %81, %83
  store double %84, double* %13, align 8
  %85 = load double, double* %12, align 8
  %86 = load double, double* %13, align 8
  %87 = fadd double %85, %86
  store double %87, double* %10, align 8
  %88 = load double, double* %12, align 8
  %89 = load double, double* %13, align 8
  %90 = fsub double %88, %89
  store double %90, double* %11, align 8
  %91 = load double, double* %12, align 8
  %92 = load double, double* %13, align 8
  %93 = load double, double* %12, align 8
  %94 = load double, double* %13, align 8
  %95 = call i32 (i8*, ...) @printf(i8* getelementptr inbounds ([33 x i8], [33 x i8]* @.str.4, i64 0, i64 0), double %91, double %92, double %93, double %94)
  br label %119

96:                                               ; preds = %65
  %97 = load double, double* %7, align 8
  %98 = fneg double %97
  %99 = load double, double* %6, align 8
  %100 = fmul double 2.000000e+00, %99
  %101 = fdiv double %98, %100
  store double %101, double* %12, align 8
  %102 = load double, double* %9, align 8
  %103 = fneg double %102
  %104 = call double @sqrt(double %103) #3
  %105 = load double, double* %6, align 8
  %106 = fmul double 2.000000e+00, %105
  %107 = fdiv double %104, %106
  store double %107, double* %13, align 8
  %108 = load double, double* %12, align 8
  %109 = load double, double* %13, align 8
  %110 = fadd double %108, %109
  store double %110, double* %10, align 8
  %111 = load double, double* %12, align 8
  %112 = load double, double* %13, align 8
  %113 = fsub double %111, %112
  store double %113, double* %11, align 8
  %114 = load double, double* %12, align 8
  %115 = load double, double* %13, align 8
  %116 = load double, double* %12, align 8
  %117 = load double, double* %13, align 8
  %118 = call i32 (i8*, ...) @printf(i8* getelementptr inbounds ([33 x i8], [33 x i8]* @.str.4, i64 0, i64 0), double %114, double %115, double %116, double %117)
  br label %119

119:                                              ; preds = %96, %74
  br label %120

120:                                              ; preds = %119, %56
  br label %121

121:                                              ; preds = %120, %33
  br label %122

122:                                              ; preds = %121
  %123 = load double, double* %15, align 8
  %124 = fadd double %123, 1.000000e+00
  store double %124, double* %15, align 8
  br label %17

125:                                              ; preds = %17
  ret i32 0
}

declare dso_local i32 @__isoc99_scanf(i8*, ...) #1

; Function Attrs: nounwind
declare dso_local double @sqrt(double) #2

declare dso_local i32 @printf(i8*, ...) #1


!llvm.module.flags = !{!0}
!llvm.ident = !{!1}

!0 = !{i32 1, !"wchar_size", i32 4}
!1 = !{!"clang version 10.0.0-4ubuntu1 "}
